target datalayout = "e-m:e-p270:32:32-p271:32:32-p272:64:64-i64:64-i128:128-f80:128-n8:16:32:64-S128"
target triple = "x86_64-pc-linux-gnu"

%struct.pg_fe_sasl_mech = type { ptr, ptr, ptr, ptr }
%struct.pg_conn = type { ptr, ptr, ptr, ptr, ptr, ptr, ptr, ptr, ptr, ptr, ptr, ptr, ptr, ptr, ptr, ptr, ptr, ptr, ptr, ptr, ptr, ptr, ptr, ptr, ptr, ptr, ptr, ptr, ptr, ptr, ptr, ptr, ptr, ptr, ptr, ptr, ptr, ptr, ptr, ptr, ptr, ptr, ptr, i8, ptr, i32, %struct.PGNoticeHooks, ptr, i32, i32, i32, i32, i32, [6 x i8], i8, i8, i32, i8, i8, i32, i8, i32, ptr, ptr, i32, i32, ptr, ptr, ptr, ptr, ptr, i32, %struct.SockAddr, %struct.SockAddr, i32, i32, i8, i8, i8, i8, i8, i8, ptr, i8, i32, [1 x ptr], i8, i8, ptr, ptr, i32, i32, i32, i8, i8, i32, i32, ptr, i8, i64, ptr, i64, ptr, i32, i32, ptr, i32, i8, i32, i32, i32, i32, ptr, %struct.pg_prng_state, ptr, i32, i32, i32, i32, ptr, i32, i32, i32, i32, ptr, i32, ptr, i8, ptr, ptr, ptr, i32, i8, i8, i8, i8, i8, i8, i8, i8, %struct.PQExpBufferData, i32, %struct.PQExpBufferData }
%struct.PGNoticeHooks = type { ptr, ptr, ptr, ptr }
%struct.SockAddr = type { %struct.sockaddr_storage, i32 }
%struct.sockaddr_storage = type { i16, [118 x i8], i64 }
%struct.pg_prng_state = type { i64, i64 }
%struct.PQExpBufferData = type { ptr, i64, i64 }
%struct.PGcmdQueueEntry = type { i32, ptr, ptr }

; Function Attrs: nounwind uwtable
define internal void @pqFreeCommandQueue(ptr noundef %0) #0 {
  %2 = alloca ptr, align 8
  %3 = alloca ptr, align 8
  store ptr %0, ptr %2, align 8
  br label %4

4:                                                ; preds = %7, %1
  %5 = load ptr, ptr %2, align 8
  %6 = icmp ne ptr %5, null
  br i1 %6, label %7, label %16

7:                                                ; preds = %4
  call void @llvm.lifetime.start.p0(i64 8, ptr %3) #12
  %8 = load ptr, ptr %2, align 8
  store ptr %8, ptr %3, align 8
  %9 = load ptr, ptr %3, align 8
  %10 = getelementptr inbounds nuw %struct.PGcmdQueueEntry, ptr %9, i32 0, i32 2
  %11 = load ptr, ptr %10, align 8
  store ptr %11, ptr %2, align 8
  %12 = load ptr, ptr %3, align 8
  %13 = getelementptr inbounds nuw %struct.PGcmdQueueEntry, ptr %12, i32 0, i32 1
  %14 = load ptr, ptr %13, align 8
  call void @free(ptr noundef %14) #12
  %15 = load ptr, ptr %3, align 8
  call void @free(ptr noundef %15) #12
  call void @llvm.lifetime.end.p0(i64 8, ptr %3) #12
  br label %4, !llvm.loop !5

16:                                               ; preds = %4
  ret void
}

; Function Attrs: nounwind uwtable
define void @pqDropConnection(ptr noundef %0, i1 noundef zeroext %1) #0 {
  %3 = alloca ptr, align 8
  %4 = alloca i8, align 1
  store ptr %0, ptr %3, align 8
  %5 = zext i1 %1 to i8
  store i8 %5, ptr %4, align 1
  %6 = load ptr, ptr %3, align 8
  call void @pqsecure_close(ptr noundef %6)
  %7 = load ptr, ptr %3, align 8
  %8 = getelementptr inbounds nuw %struct.pg_conn, ptr %7, i32 0, i32 71
  %9 = load i32, ptr %8, align 8
  %10 = icmp ne i32 %9, -1
  br i1 %10, label %11, label %16

11:                                               ; preds = %2
  %12 = load ptr, ptr %3, align 8
  %13 = getelementptr inbounds nuw %struct.pg_conn, ptr %12, i32 0, i32 71
  %14 = load i32, ptr %13, align 8
  %15 = call i32 @close(i32 noundef %14)
  br label %16

16:                                               ; preds = %11, %2
  %17 = load ptr, ptr %3, align 8
  %18 = getelementptr inbounds nuw %struct.pg_conn, ptr %17, i32 0, i32 71
  store i32 -1, ptr %18, align 8
  %19 = load i8, ptr %4, align 1, !range !3, !noundef !4
  %20 = trunc i8 %19 to i1
  br i1 %20, label %21, label %28

21:                                               ; preds = %16
  %22 = load ptr, ptr %3, align 8
  %23 = getelementptr inbounds nuw %struct.pg_conn, ptr %22, i32 0, i32 118
  store i32 0, ptr %23, align 4
  %24 = load ptr, ptr %3, align 8
  %25 = getelementptr inbounds nuw %struct.pg_conn, ptr %24, i32 0, i32 117
  store i32 0, ptr %25, align 8
  %26 = load ptr, ptr %3, align 8
  %27 = getelementptr inbounds nuw %struct.pg_conn, ptr %26, i32 0, i32 116
  store i32 0, ptr %27, align 4
  br label %28

28:                                               ; preds = %21, %16
  %29 = load ptr, ptr %3, align 8
  %30 = getelementptr inbounds nuw %struct.pg_conn, ptr %29, i32 0, i32 121
  store i32 0, ptr %30, align 4
  %31 = load ptr, ptr %3, align 8
  %32 = getelementptr inbounds nuw %struct.pg_conn, ptr %31, i32 0, i32 68
  %33 = load ptr, ptr %32, align 8
  call void @pqFreeCommandQueue(ptr noundef %33)
  %34 = load ptr, ptr %3, align 8
  %35 = getelementptr inbounds nuw %struct.pg_conn, ptr %34, i32 0, i32 69
  store ptr null, ptr %35, align 8
  %36 = load ptr, ptr %3, align 8
  %37 = getelementptr inbounds nuw %struct.pg_conn, ptr %36, i32 0, i32 68
  store ptr null, ptr %37, align 8
  %38 = load ptr, ptr %3, align 8
  %39 = getelementptr inbounds nuw %struct.pg_conn, ptr %38, i32 0, i32 70
  %40 = load ptr, ptr %39, align 8
  call void @pqFreeCommandQueue(ptr noundef %40)
  %41 = load ptr, ptr %3, align 8
  %42 = getelementptr inbounds nuw %struct.pg_conn, ptr %41, i32 0, i32 70
  store ptr null, ptr %42, align 8
  %43 = load ptr, ptr %3, align 8
  %44 = getelementptr inbounds nuw %struct.pg_conn, ptr %43, i32 0, i32 89
  %45 = load ptr, ptr %44, align 8
  %46 = icmp ne ptr %45, null
  br i1 %46, label %47, label %54

47:                                               ; preds = %28
  %48 = load ptr, ptr %3, align 8
  %49 = getelementptr inbounds nuw %struct.pg_conn, ptr %48, i32 0, i32 89
  %50 = load ptr, ptr %49, align 8
  %51 = load ptr, ptr %3, align 8
  call void %50(ptr noundef %51)
  %52 = load ptr, ptr %3, align 8
  %53 = getelementptr inbounds nuw %struct.pg_conn, ptr %52, i32 0, i32 89
  store ptr null, ptr %53, align 8
  br label %54

54:                                               ; preds = %47, %28
  %55 = load ptr, ptr %3, align 8
  %56 = getelementptr inbounds nuw %struct.pg_conn, ptr %55, i32 0, i32 88
  store ptr null, ptr %56, align 8
  %57 = load ptr, ptr %3, align 8
  %58 = getelementptr inbounds nuw %struct.pg_conn, ptr %57, i32 0, i32 90
  store i32 -1, ptr %58, align 8
  %59 = load ptr, ptr %3, align 8
  %60 = getelementptr inbounds nuw %struct.pg_conn, ptr %59, i32 0, i32 130
  %61 = load ptr, ptr %60, align 8
  %62 = icmp ne ptr %61, null
  br i1 %62, label %63, label %74

63:                                               ; preds = %54
  %64 = load ptr, ptr %3, align 8
  %65 = getelementptr inbounds nuw %struct.pg_conn, ptr %64, i32 0, i32 129
  %66 = load ptr, ptr %65, align 8
  %67 = getelementptr inbounds nuw %struct.pg_fe_sasl_mech, ptr %66, i32 0, i32 3
  %68 = load ptr, ptr %67, align 8
  %69 = load ptr, ptr %3, align 8
  %70 = getelementptr inbounds nuw %struct.pg_conn, ptr %69, i32 0, i32 130
  %71 = load ptr, ptr %70, align 8
  call void %68(ptr noundef %71)
  %72 = load ptr, ptr %3, align 8
  %73 = getelementptr inbounds nuw %struct.pg_conn, ptr %72, i32 0, i32 130
  store ptr null, ptr %73, align 8
  br label %74

74:                                               ; preds = %63, %54
  ret void
}