; Function Attrs: nounwind uwtable
define void @pqDropConnection(ptr noundef %0, i1 noundef zeroext %1) local_unnamed_addr #0 {
  tail call void @pqsecure_close(ptr noundef %0) #25
  %3 = getelementptr inbounds nuw i8, ptr %0, i64 520
  %4 = load i32, ptr %3, align 8
  %.not = icmp eq i32 %4, -1
  br i1 %.not, label %7, label %5

5:                                                ; preds = %2
  %6 = tail call i32 @close(i32 noundef %4) #25
  br label %7

7:                                                ; preds = %5, %2
  store i32 -1, ptr %3, align 8
  br i1 %1, label %8, label %12

8:                                                ; preds = %7
  %9 = getelementptr inbounds nuw i8, ptr %0, i64 1020
  store i32 0, ptr %9, align 4
  %10 = getelementptr inbounds nuw i8, ptr %0, i64 1016
  store i32 0, ptr %10, align 8
  %11 = getelementptr inbounds nuw i8, ptr %0, i64 1012
  store i32 0, ptr %11, align 4
  br label %12

12:                                               ; preds = %8, %7
  %13 = getelementptr inbounds nuw i8, ptr %0, i64 1036
  store i32 0, ptr %13, align 4
  %14 = getelementptr inbounds nuw i8, ptr %0, i64 496
  %15 = load ptr, ptr %14, align 8
  %.not5.i = icmp eq ptr %15, null
  br i1 %.not5.i, label %pqFreeCommandQueue.exit, label %.lr.ph.i

.lr.ph.i:                                         ; preds = %12, %.lr.ph.i
  %.06.i = phi ptr [ %17, %.lr.ph.i ], [ %15, %12 ]
  %16 = getelementptr inbounds nuw i8, ptr %.06.i, i64 16
  %17 = load ptr, ptr %16, align 8
  %18 = getelementptr inbounds nuw i8, ptr %.06.i, i64 8
  %19 = load ptr, ptr %18, align 8
  tail call void @free(ptr noundef %19) #25
  tail call void @free(ptr noundef nonnull %.06.i) #25
  %.not.i = icmp eq ptr %17, null
  br i1 %.not.i, label %pqFreeCommandQueue.exit, label %.lr.ph.i, !llvm.loop !3

pqFreeCommandQueue.exit:                          ; preds = %.lr.ph.i, %12
  %20 = getelementptr inbounds nuw i8, ptr %0, i64 512
  tail call void @llvm.memset.p0.i64(ptr noundef nonnull align 8 dereferenceable(16) %14, i8 0, i64 16, i1 false)
  %21 = load ptr, ptr %20, align 8
  %.not5.i27 = icmp eq ptr %21, null
  br i1 %.not5.i27, label %pqFreeCommandQueue.exit31, label %.lr.ph.i28

.lr.ph.i28:                                       ; preds = %pqFreeCommandQueue.exit, %.lr.ph.i28
  %.06.i29 = phi ptr [ %23, %.lr.ph.i28 ], [ %21, %pqFreeCommandQueue.exit ]
  %22 = getelementptr inbounds nuw i8, ptr %.06.i29, i64 16
  %23 = load ptr, ptr %22, align 8
  %24 = getelementptr inbounds nuw i8, ptr %.06.i29, i64 8
  %25 = load ptr, ptr %24, align 8
  tail call void @free(ptr noundef %25) #25
  tail call void @free(ptr noundef nonnull %.06.i29) #25
  %.not.i30 = icmp eq ptr %23, null
  br i1 %.not.i30, label %pqFreeCommandQueue.exit31, label %.lr.ph.i28, !llvm.loop !3

pqFreeCommandQueue.exit31:                        ; preds = %.lr.ph.i28, %pqFreeCommandQueue.exit
  store ptr null, ptr %20, align 8
  %26 = getelementptr inbounds nuw i8, ptr %0, i64 856
  %27 = load ptr, ptr %26, align 8
  %.not25 = icmp eq ptr %27, null
  br i1 %.not25, label %29, label %28

28:                                               ; preds = %pqFreeCommandQueue.exit31
  tail call void %27(ptr noundef nonnull %0) #25
  store ptr null, ptr %26, align 8
  br label %29

29:                                               ; preds = %28, %pqFreeCommandQueue.exit31
  %30 = getelementptr inbounds nuw i8, ptr %0, i64 848
  store ptr null, ptr %30, align 8
  %31 = getelementptr inbounds nuw i8, ptr %0, i64 864
  store i32 -1, ptr %31, align 8
  %32 = getelementptr inbounds nuw i8, ptr %0, i64 1096
  %33 = load ptr, ptr %32, align 8
  %.not26 = icmp eq ptr %33, null
  br i1 %.not26, label %39, label %34

34:                                               ; preds = %29
  %35 = getelementptr inbounds nuw i8, ptr %0, i64 1088
  %36 = load ptr, ptr %35, align 8
  %37 = getelementptr inbounds nuw i8, ptr %36, i64 24
  %38 = load ptr, ptr %37, align 8
  tail call void %38(ptr noundef nonnull %33) #25
  store ptr null, ptr %32, align 8
  br label %39

39:                                               ; preds = %34, %29
  ret void
}